target datalayout = "e-m:e-p270:32:32-p271:32:32-p272:64:64-i64:64-i128:128-f80:128-n8:16:32:64-S128"
target triple = "x86_64-pc-linux-gnu"

%"class.Imath_3_2::half" = type { i16 }

; Function Attrs: inlinehint mustprogress nounwind uwtable
define linkonce_odr hidden noundef zeroext i16 @_ZNK9Imath_3_24half4bitsEv(ptr noundef nonnull align 2 dereferenceable(2) %0) #5 comdat align 2 {
  %2 = alloca ptr, align 8
  store ptr %0, ptr %2, align 8, !tbaa !10
  %3 = load ptr, ptr %2, align 8
  %4 = getelementptr inbounds nuw %"class.Imath_3_2::half", ptr %3, i32 0, i32 0
  %5 = load i16, ptr %4, align 2, !tbaa !12
  ret i16 %5
}

; Function Attrs: mustprogress nounwind uwtable
define void @_Z9printBitsPcN9Imath_3_24halfE(ptr noundef %0, i16 %1) #9 {
  %3 = alloca %"class.Imath_3_2::half", align 2
  %4 = alloca ptr, align 8
  %5 = alloca i16, align 2
  %6 = alloca i32, align 4
  %7 = alloca i32, align 4
  %8 = getelementptr inbounds nuw %"class.Imath_3_2::half", ptr %3, i32 0, i32 0
  store i16 %1, ptr %8, align 2
  store ptr %0, ptr %4, align 8, !tbaa !29
  call void @llvm.lifetime.start.p0(i64 2, ptr %5) #3
  %9 = call noundef zeroext i16 @_ZNK9Imath_3_24half4bitsEv(ptr noundef nonnull align 2 dereferenceable(2) %3) #3
  store i16 %9, ptr %5, align 2, !tbaa !18
  call void @llvm.lifetime.start.p0(i64 4, ptr %6) #3
  store i32 15, ptr %6, align 4, !tbaa !21
  call void @llvm.lifetime.start.p0(i64 4, ptr %7) #3
  store i32 0, ptr %7, align 4, !tbaa !21
  br label %10

10:                                               ; preds = %38, %2
  %11 = load i32, ptr %6, align 4, !tbaa !21
  %12 = icmp sge i32 %11, 0
  br i1 %12, label %14, label %13

13:                                               ; preds = %10
  call void @llvm.lifetime.end.p0(i64 4, ptr %7) #3
  call void @llvm.lifetime.end.p0(i64 4, ptr %6) #3
  br label %43

14:                                               ; preds = %10
  %15 = load i16, ptr %5, align 2, !tbaa !18
  %16 = zext i16 %15 to i32
  %17 = load i32, ptr %6, align 4, !tbaa !21
  %18 = ashr i32 %16, %17
  %19 = and i32 %18, 1
  %20 = icmp ne i32 %19, 0
  %21 = select i1 %20, i8 49, i8 48
  %22 = load ptr, ptr %4, align 8, !tbaa !29
  %23 = load i32, ptr %7, align 4, !tbaa !21
  %24 = sext i32 %23 to i64
  %25 = getelementptr inbounds i8, ptr %22, i64 %24
  store i8 %21, ptr %25, align 1, !tbaa !25
  %26 = load i32, ptr %6, align 4, !tbaa !21
  %27 = icmp eq i32 %26, 15
  br i1 %27, label %31, label %28

28:                                               ; preds = %14
  %29 = load i32, ptr %6, align 4, !tbaa !21
  %30 = icmp eq i32 %29, 10
  br i1 %30, label %31, label %37

31:                                               ; preds = %28, %14
  %32 = load ptr, ptr %4, align 8, !tbaa !29
  %33 = load i32, ptr %7, align 4, !tbaa !21
  %34 = add nsw i32 %33, 1
  store i32 %34, ptr %7, align 4, !tbaa !21
  %35 = sext i32 %34 to i64
  %36 = getelementptr inbounds i8, ptr %32, i64 %35
  store i8 32, ptr %36, align 1, !tbaa !25
  br label %37

37:                                               ; preds = %31, %28
  br label %38

38:                                               ; preds = %37
  %39 = load i32, ptr %6, align 4, !tbaa !21
  %40 = add nsw i32 %39, -1
  store i32 %40, ptr %6, align 4, !tbaa !21
  %41 = load i32, ptr %7, align 4, !tbaa !21
  %42 = add nsw i32 %41, 1
  store i32 %42, ptr %7, align 4, !tbaa !21
  br label %10, !llvm.loop !31

43:                                               ; preds = %13
  %44 = load ptr, ptr %4, align 8, !tbaa !29
  %45 = getelementptr inbounds i8, ptr %44, i64 18
  store i8 0, ptr %45, align 1, !tbaa !25
  call void @llvm.lifetime.end.p0(i64 2, ptr %5) #3
  ret void
}