; Function Attrs: mustprogress nofree norecurse nosync nounwind memory(argmem: write) uwtable
define void @_Z9printBitsPcN9Imath_3_24halfE(ptr noundef writeonly captures(none) %0, i16 %1) local_unnamed_addr #5 {
  %3 = zext i16 %1 to i32
  br label %6

4:                                                ; preds = %16
  %5 = getelementptr inbounds nuw i8, ptr %0, i64 18
  store i8 0, ptr %5, align 1, !tbaa !8
  ret void

6:                                                ; preds = %2, %16
  %.014 = phi i32 [ 0, %2 ], [ %18, %16 ]
  %.01213 = phi i32 [ 15, %2 ], [ %17, %16 ]
  %7 = shl nuw i32 1, %.01213
  %8 = and i32 %7, %3
  %.not = icmp eq i32 %8, 0
  %9 = select i1 %.not, i8 48, i8 49
  %10 = sext i32 %.014 to i64
  %11 = getelementptr inbounds i8, ptr %0, i64 %10
  store i8 %9, ptr %11, align 1, !tbaa !8
  switch i32 %.01213, label %16 [
    i32 15, label %12
    i32 10, label %12
  ]

12:                                               ; preds = %6, %6
  %13 = add nsw i32 %.014, 1
  %14 = sext i32 %13 to i64
  %15 = getelementptr inbounds i8, ptr %0, i64 %14
  store i8 32, ptr %15, align 1, !tbaa !8
  br label %16

16:                                               ; preds = %6, %12
  %.1 = phi i32 [ %13, %12 ], [ %.014, %6 ]
  %17 = add nsw i32 %.01213, -1
  %18 = add nsw i32 %.1, 1
  %.not15 = icmp eq i32 %.01213, 0
  br i1 %.not15, label %4, label %6, !llvm.loop !30
}